; Function Attrs: mustprogress uwtable
define internal void @_ZN7rocksdb12_GLOBAL__N_121TwoLevelIndexIterator11SeekToFirstEv(ptr noundef nonnull align 8 dereferenceable(160) %this) unnamed_addr #0 align 2 {
entry:
  %first_level_iter_ = getelementptr inbounds i8, ptr %this, i64 48
  %0 = load ptr, ptr %first_level_iter_, align 8
  %vtable.i = load ptr, ptr %0, align 8
  %vfn.i = getelementptr inbounds i8, ptr %vtable.i, i64 32
  %1 = load ptr, ptr %vfn.i, align 8
  tail call void %1(ptr noundef nonnull align 8 dereferenceable(40) %0)
  %2 = load ptr, ptr %first_level_iter_, align 8
  %vtable.i.i = load ptr, ptr %2, align 8
  %vfn.i.i = getelementptr inbounds i8, ptr %vtable.i.i, i64 24
  %3 = load ptr, ptr %vfn.i.i, align 8
  %call.i.i = tail call noundef zeroext i1 %3(ptr noundef nonnull align 8 dereferenceable(40) %2)
  %valid_.i.i = getelementptr inbounds i8, ptr %this, i64 80
  %frombool.i.i = zext i1 %call.i.i to i8
  store i8 %frombool.i.i, ptr %valid_.i.i, align 8
  br i1 %call.i.i, label %if.then.i.i, label %_ZN7rocksdb19IteratorWrapperBaseINS_10IndexValueEE11SeekToFirstEv.exit

if.then.i.i:                                      ; preds = %entry
  %4 = load ptr, ptr %first_level_iter_, align 8
  %vtable4.i.i = load ptr, ptr %4, align 8
  %vfn5.i.i = getelementptr inbounds i8, ptr %vtable4.i.i, i64 88
  %5 = load ptr, ptr %vfn5.i.i, align 8
  %call6.i.i = tail call { ptr, i64 } %5(ptr noundef nonnull align 8 dereferenceable(40) %4)
  %6 = extractvalue { ptr, i64 } %call6.i.i, 0
  %7 = extractvalue { ptr, i64 } %call6.i.i, 1
  %result_.i.i = getelementptr inbounds i8, ptr %this, i64 56
  store ptr %6, ptr %result_.i.i, align 8
  %ref.tmp.sroa.2.0.key.sroa_idx.i.i = getelementptr inbounds i8, ptr %this, i64 64
  store i64 %7, ptr %ref.tmp.sroa.2.0.key.sroa_idx.i.i, align 8
  %bound_check_result.i.i = getelementptr inbounds i8, ptr %this, i64 72
  store i8 0, ptr %bound_check_result.i.i, align 8
  %value_prepared.i.i = getelementptr inbounds i8, ptr %this, i64 73
  store i8 0, ptr %value_prepared.i.i, align 1
  br label %_ZN7rocksdb19IteratorWrapperBaseINS_10IndexValueEE11SeekToFirstEv.exit

_ZN7rocksdb19IteratorWrapperBaseINS_10IndexValueEE11SeekToFirstEv.exit: ; preds = %entry, %if.then.i.i
  tail call fastcc void @_ZN7rocksdb12_GLOBAL__N_121TwoLevelIndexIterator13InitDataBlockEv(ptr noundef nonnull align 8 dereferenceable(160) %this)
  %second_level_iter_ = getelementptr inbounds i8, ptr %this, i64 88
  %8 = load ptr, ptr %second_level_iter_, align 8
  %cmp.not = icmp eq ptr %8, null
  br i1 %cmp.not, label %if.end, label %if.then

if.then:                                          ; preds = %_ZN7rocksdb19IteratorWrapperBaseINS_10IndexValueEE11SeekToFirstEv.exit
  %vtable.i1 = load ptr, ptr %8, align 8
  %vfn.i2 = getelementptr inbounds i8, ptr %vtable.i1, i64 32
  %9 = load ptr, ptr %vfn.i2, align 8
  tail call void %9(ptr noundef nonnull align 8 dereferenceable(40) %8)
  %10 = load ptr, ptr %second_level_iter_, align 8
  %vtable.i.i3 = load ptr, ptr %10, align 8
  %vfn.i.i4 = getelementptr inbounds i8, ptr %vtable.i.i3, i64 24
  %11 = load ptr, ptr %vfn.i.i4, align 8
  %call.i.i5 = tail call noundef zeroext i1 %11(ptr noundef nonnull align 8 dereferenceable(40) %10)
  %valid_.i.i6 = getelementptr inbounds i8, ptr %this, i64 120
  %frombool.i.i7 = zext i1 %call.i.i5 to i8
  store i8 %frombool.i.i7, ptr %valid_.i.i6, align 8
  br i1 %call.i.i5, label %if.then.i.i8, label %if.end

if.then.i.i8:                                     ; preds = %if.then
  %12 = load ptr, ptr %second_level_iter_, align 8
  %vtable4.i.i9 = load ptr, ptr %12, align 8
  %vfn5.i.i10 = getelementptr inbounds i8, ptr %vtable4.i.i9, i64 88
  %13 = load ptr, ptr %vfn5.i.i10, align 8
  %call6.i.i11 = tail call { ptr, i64 } %13(ptr noundef nonnull align 8 dereferenceable(40) %12)
  %14 = extractvalue { ptr, i64 } %call6.i.i11, 0
  %15 = extractvalue { ptr, i64 } %call6.i.i11, 1
  %result_.i.i12 = getelementptr inbounds i8, ptr %this, i64 96
  store ptr %14, ptr %result_.i.i12, align 8
  %ref.tmp.sroa.2.0.key.sroa_idx.i.i13 = getelementptr inbounds i8, ptr %this, i64 104
  store i64 %15, ptr %ref.tmp.sroa.2.0.key.sroa_idx.i.i13, align 8
  %bound_check_result.i.i14 = getelementptr inbounds i8, ptr %this, i64 112
  store i8 0, ptr %bound_check_result.i.i14, align 8
  %value_prepared.i.i15 = getelementptr inbounds i8, ptr %this, i64 113
  store i8 0, ptr %value_prepared.i.i15, align 1
  br label %if.end

if.end:                                           ; preds = %if.then.i.i8, %if.then, %_ZN7rocksdb19IteratorWrapperBaseINS_10IndexValueEE11SeekToFirstEv.exit
  tail call fastcc void @_ZN7rocksdb12_GLOBAL__N_121TwoLevelIndexIterator26SkipEmptyDataBlocksForwardEv(ptr noundef nonnull align 8 dereferenceable(160) %this)
  ret void
}